target datalayout = "e-m:e-p270:32:32-p271:32:32-p272:64:64-i64:64-i128:128-f80:128-n8:16:32:64-S128"
target triple = "x86_64-pc-linux-gnu"

@hf_timeinterval = internal global i32 0, align 4
@.str.702 = private unnamed_addr constant [11 x i8] c"%f seconds\00", align 1

; Function Attrs: null_pointer_is_valid sspstrong uwtable
define internal i32 @add_timeinterval(ptr noundef %0, i32 noundef %1, i32 noundef %2, ptr noundef %3, ptr noundef %4, i32 noundef %5, i32 noundef %6, ptr noundef %7) #0 {
  %9 = alloca ptr, align 8
  %10 = alloca i32, align 4
  %11 = alloca i32, align 4
  %12 = alloca ptr, align 8
  %13 = alloca ptr, align 8
  %14 = alloca i32, align 4
  %15 = alloca i32, align 4
  %16 = alloca ptr, align 8
  %17 = alloca i16, align 2
  store ptr %0, ptr %9, align 8
  store i32 %1, ptr %10, align 4
  store i32 %2, ptr %11, align 4
  store ptr %3, ptr %12, align 8
  store ptr %4, ptr %13, align 8
  store i32 %5, ptr %14, align 4
  store i32 %6, ptr %15, align 4
  store ptr %7, ptr %16, align 8
  call void @llvm.lifetime.start.p0(i64 2, ptr %17) #7
  %18 = load ptr, ptr %9, align 8
  %19 = load i32, ptr %10, align 4
  %20 = call zeroext i16 @tvb_get_letohs(ptr noundef %18, i32 noundef %19)
  store i16 %20, ptr %17, align 2
  %21 = load ptr, ptr %13, align 8
  %22 = load i32, ptr @hf_timeinterval, align 4
  %23 = load ptr, ptr %9, align 8
  %24 = load i32, ptr %10, align 4
  %25 = load i16, ptr %17, align 2
  %26 = zext i16 %25 to i32
  %27 = load i16, ptr %17, align 2
  %28 = zext i16 %27 to i32
  %29 = sitofp i32 %28 to double
  %30 = fmul double %29, 1.000000e-04
  %31 = call ptr (ptr, i32, ptr, i32, i32, i32, ptr, ...) @proto_tree_add_uint_format_value(ptr noundef %21, i32 noundef %22, ptr noundef %23, i32 noundef %24, i32 noundef 2, i32 noundef %26, ptr noundef @.str.702, double noundef %30)
  %32 = load i32, ptr %10, align 4
  %33 = add i32 %32, 2
  store i32 %33, ptr %10, align 4
  %34 = load i32, ptr %10, align 4
  call void @llvm.lifetime.end.p0(i64 2, ptr %17) #7
  ret i32 %34
}